; Function Attrs: nounwind uwtable
define noalias noundef ptr @LoadCodepoints(ptr noundef readonly captures(address_is_null) %0, ptr noundef writeonly captures(none) %1) local_unnamed_addr #10 {
  %.not.i = icmp eq ptr %0, null
  br i1 %.not.i, label %TextLength.exit.thread, label %.preheader.i

.preheader.i:                                     ; preds = %2
  %3 = load i8, ptr %0, align 1
  %.not56.i = icmp eq i8 %3, 0
  br i1 %.not56.i, label %TextLength.exit.thread, label %.lr.ph.i

.lr.ph.i:                                         ; preds = %.preheader.i, %.lr.ph.i
  %.18.i = phi i32 [ %5, %.lr.ph.i ], [ 0, %.preheader.i ]
  %.037.i = phi ptr [ %4, %.lr.ph.i ], [ %0, %.preheader.i ]
  %4 = getelementptr inbounds nuw i8, ptr %.037.i, i64 1
  %5 = add i32 %.18.i, 1
  %6 = load i8, ptr %4, align 1
  %.not5.i = icmp eq i8 %6, 0
  br i1 %.not5.i, label %TextLength.exit, label %.lr.ph.i

TextLength.exit.thread:                           ; preds = %2, %.preheader.i
  %7 = tail call noalias ptr @calloc(i64 noundef 0, i64 noundef 4) #42
  br label %._crit_edge

TextLength.exit:                                  ; preds = %.lr.ph.i
  %8 = sext i32 %5 to i64
  %9 = tail call noalias ptr @calloc(i64 noundef %8, i64 noundef 4) #42
  %10 = icmp ult i32 %.18.i, 2147483647
  br i1 %10, label %.lr.ph, label %._crit_edge

._crit_edge.loopexit:                             ; preds = %GetCodepointNext.exit
  %11 = trunc nuw i64 %indvars.iv.next to i32
  br label %._crit_edge

._crit_edge:                                      ; preds = %TextLength.exit.thread, %._crit_edge.loopexit, %TextLength.exit
  %12 = phi ptr [ %9, %TextLength.exit ], [ %9, %._crit_edge.loopexit ], [ %7, %TextLength.exit.thread ]
  %.014.lcssa = phi i32 [ 0, %TextLength.exit ], [ %11, %._crit_edge.loopexit ], [ 0, %TextLength.exit.thread ]
  %13 = zext nneg i32 %.014.lcssa to i64
  %14 = shl nuw nsw i64 %13, 2
  %15 = tail call ptr @realloc(ptr noundef %12, i64 noundef %14) #45
  store i32 %.014.lcssa, ptr %1, align 4
  ret ptr %15

.lr.ph:                                           ; preds = %TextLength.exit, %GetCodepointNext.exit
  %indvars.iv = phi i64 [ %indvars.iv.next, %GetCodepointNext.exit ], [ 0, %TextLength.exit ]
  %.018 = phi i32 [ %85, %GetCodepointNext.exit ], [ 0, %TextLength.exit ]
  %16 = zext nneg i32 %.018 to i64
  %17 = getelementptr inbounds nuw i8, ptr %0, i64 %16
  %18 = load i8, ptr %17, align 1
  %19 = sext i8 %18 to i32
  %20 = and i32 %19, 248
  %21 = icmp eq i32 %20, 240
  br i1 %21, label %22, label %48

22:                                               ; preds = %.lr.ph
  %23 = getelementptr inbounds nuw i8, ptr %17, i64 1
  %24 = load i8, ptr %23, align 1
  %25 = sext i8 %24 to i32
  %26 = and i32 %25, 192
  %.not33.i = icmp eq i32 %26, 128
  br i1 %.not33.i, label %27, label %GetCodepointNext.exit

27:                                               ; preds = %22
  %28 = getelementptr inbounds nuw i8, ptr %17, i64 2
  %29 = load i8, ptr %28, align 1
  %30 = sext i8 %29 to i32
  %31 = and i32 %30, 192
  %.not34.i = icmp eq i32 %31, 128
  br i1 %.not34.i, label %32, label %GetCodepointNext.exit

32:                                               ; preds = %27
  %33 = getelementptr inbounds nuw i8, ptr %17, i64 3
  %34 = load i8, ptr %33, align 1
  %35 = zext i8 %34 to i32
  %36 = and i32 %35, 192
  %.not35.i = icmp eq i32 %36, 128
  br i1 %.not35.i, label %37, label %GetCodepointNext.exit

37:                                               ; preds = %32
  %38 = shl nsw i32 %19, 18
  %39 = and i32 %38, 1835008
  %40 = shl nsw i32 %25, 12
  %41 = and i32 %40, 258048
  %42 = or disjoint i32 %41, %39
  %43 = shl nsw i32 %30, 6
  %44 = and i32 %43, 4032
  %45 = or disjoint i32 %42, %44
  %46 = and i32 %35, 63
  %47 = or disjoint i32 %45, %46
  br label %GetCodepointNext.exit

48:                                               ; preds = %.lr.ph
  %49 = and i32 %19, 240
  %50 = icmp eq i32 %49, 224
  br i1 %50, label %51, label %69

51:                                               ; preds = %48
  %52 = getelementptr inbounds nuw i8, ptr %17, i64 1
  %53 = load i8, ptr %52, align 1
  %54 = sext i8 %53 to i32
  %55 = and i32 %54, 192
  %.not31.i = icmp eq i32 %55, 128
  br i1 %.not31.i, label %56, label %GetCodepointNext.exit

56:                                               ; preds = %51
  %57 = getelementptr inbounds nuw i8, ptr %17, i64 2
  %58 = load i8, ptr %57, align 1
  %59 = zext i8 %58 to i32
  %60 = and i32 %59, 192
  %.not32.i = icmp eq i32 %60, 128
  br i1 %.not32.i, label %61, label %GetCodepointNext.exit

61:                                               ; preds = %56
  %62 = shl nsw i32 %19, 12
  %63 = and i32 %62, 61440
  %64 = shl nsw i32 %54, 6
  %65 = and i32 %64, 4032
  %66 = or disjoint i32 %65, %63
  %67 = and i32 %59, 63
  %68 = or disjoint i32 %66, %67
  br label %GetCodepointNext.exit

69:                                               ; preds = %48
  %70 = and i32 %19, 224
  %71 = icmp eq i32 %70, 192
  br i1 %71, label %72, label %82

72:                                               ; preds = %69
  %73 = getelementptr inbounds nuw i8, ptr %17, i64 1
  %74 = load i8, ptr %73, align 1
  %75 = zext i8 %74 to i32
  %76 = and i32 %75, 192
  %.not.i15 = icmp eq i32 %76, 128
  br i1 %.not.i15, label %77, label %GetCodepointNext.exit

77:                                               ; preds = %72
  %78 = shl nsw i32 %19, 6
  %79 = and i32 %78, 1984
  %80 = and i32 %75, 63
  %81 = or disjoint i32 %80, %79
  br label %GetCodepointNext.exit

82:                                               ; preds = %69
  %83 = icmp sgt i8 %18, -1
  %spec.select.i = select i1 %83, i32 %19, i32 63
  br label %GetCodepointNext.exit

GetCodepointNext.exit:                            ; preds = %37, %61, %77, %22, %27, %32, %51, %56, %72, %82
  %.016 = phi i32 [ 1, %32 ], [ 1, %27 ], [ 1, %22 ], [ 1, %56 ], [ 1, %51 ], [ 1, %72 ], [ 1, %82 ], [ 4, %37 ], [ 2, %77 ], [ 3, %61 ]
  %.030.i = phi i32 [ 63, %32 ], [ 63, %27 ], [ 63, %22 ], [ 63, %56 ], [ 63, %51 ], [ 63, %72 ], [ %spec.select.i, %82 ], [ %47, %37 ], [ %81, %77 ], [ %68, %61 ]
  %84 = getelementptr inbounds nuw i32, ptr %9, i64 %indvars.iv
  store i32 %.030.i, ptr %84, align 4
  %85 = add nuw nsw i32 %.016, %.018
  %indvars.iv.next = add nuw nsw i64 %indvars.iv, 1
  %86 = icmp slt i32 %85, %5
  br i1 %86, label %.lr.ph, label %._crit_edge.loopexit
}